; Function Attrs: inlinehint mustprogress uwtable
define internal void @"_ZZN3igl6opengl4glfw17background_windowERP10GLFWwindowEN3$_08__invokeEiPKc"(i32 %0, ptr noundef %1) #3 align 2 {
  %.not.i.i = icmp eq ptr %1, null
  br i1 %.not.i.i, label %3, label %11

3:                                                ; preds = %2
  %4 = load ptr, ptr @_ZSt4cerr, align 8, !tbaa !10
  %5 = getelementptr i8, ptr %4, i64 -24
  %6 = load i64, ptr %5, align 8
  %7 = getelementptr inbounds i8, ptr @_ZSt4cerr, i64 %6
  %8 = getelementptr inbounds nuw i8, ptr %7, i64 32
  %9 = load i32, ptr %8, align 8, !tbaa !12
  %10 = or i32 %9, 1
  tail call void @_ZNSt9basic_iosIcSt11char_traitsIcEE5clearESt12_Ios_Iostate(ptr noundef nonnull align 8 dereferenceable(264) %7, i32 noundef %10)
  br label %_ZStlsISt11char_traitsIcEERSt13basic_ostreamIcT_ES5_PKc.exit.i

11:                                               ; preds = %2
  %12 = tail call noundef i64 @strlen(ptr noundef nonnull dereferenceable(1) %1) #6
  %13 = tail call noundef nonnull align 8 dereferenceable(8) ptr @_ZSt16__ostream_insertIcSt11char_traitsIcEERSt13basic_ostreamIT_T0_ES6_PKS3_l(ptr noundef nonnull align 8 dereferenceable(8) @_ZSt4cerr, ptr noundef nonnull %1, i64 noundef %12)
  br label %_ZStlsISt11char_traitsIcEERSt13basic_ostreamIcT_ES5_PKc.exit.i

_ZStlsISt11char_traitsIcEERSt13basic_ostreamIcT_ES5_PKc.exit.i: ; preds = %11, %3
  %14 = load ptr, ptr @_ZSt4cerr, align 8, !tbaa !10
  %15 = getelementptr i8, ptr %14, i64 -24
  %16 = load i64, ptr %15, align 8
  %17 = getelementptr inbounds i8, ptr @_ZSt4cerr, i64 %16
  %18 = getelementptr inbounds nuw i8, ptr %17, i64 240
  %19 = load ptr, ptr %18, align 8, !tbaa !23
  %.not.i.i.i.i = icmp eq ptr %19, null
  br i1 %.not.i.i.i.i, label %20, label %_ZSt13__check_facetISt5ctypeIcEERKT_PS3_.exit.i.i.i

20:                                               ; preds = %_ZStlsISt11char_traitsIcEERSt13basic_ostreamIcT_ES5_PKc.exit.i
  tail call void @_ZSt16__throw_bad_castv() #7
  unreachable

_ZSt13__check_facetISt5ctypeIcEERKT_PS3_.exit.i.i.i: ; preds = %_ZStlsISt11char_traitsIcEERSt13basic_ostreamIcT_ES5_PKc.exit.i
  %21 = getelementptr inbounds nuw i8, ptr %19, i64 56
  %22 = load i8, ptr %21, align 8, !tbaa !31
  %.not.i1.i.i.i = icmp eq i8 %22, 0
  br i1 %.not.i1.i.i.i, label %26, label %23

23:                                               ; preds = %_ZSt13__check_facetISt5ctypeIcEERKT_PS3_.exit.i.i.i
  %24 = getelementptr inbounds nuw i8, ptr %19, i64 67
  %25 = load i8, ptr %24, align 1, !tbaa !37
  br label %"_ZZN3igl6opengl4glfw17background_windowERP10GLFWwindowENK3$_0clEiPKc.exit"

26:                                               ; preds = %_ZSt13__check_facetISt5ctypeIcEERKT_PS3_.exit.i.i.i
  tail call void @_ZNKSt5ctypeIcE13_M_widen_initEv(ptr noundef nonnull align 8 dereferenceable(570) %19)
  %27 = load ptr, ptr %19, align 8, !tbaa !10
  %28 = getelementptr inbounds nuw i8, ptr %27, i64 48
  %29 = load ptr, ptr %28, align 8
  %30 = tail call noundef signext i8 %29(ptr noundef nonnull align 8 dereferenceable(570) %19, i8 noundef signext 10)
  br label %"_ZZN3igl6opengl4glfw17background_windowERP10GLFWwindowENK3$_0clEiPKc.exit"

"_ZZN3igl6opengl4glfw17background_windowERP10GLFWwindowENK3$_0clEiPKc.exit": ; preds = %23, %26
  %.0.i.i.i.i = phi i8 [ %25, %23 ], [ %30, %26 ]
  %31 = tail call noundef nonnull align 8 dereferenceable(8) ptr @_ZNSo3putEc(ptr noundef nonnull align 8 dereferenceable(8) @_ZSt4cerr, i8 noundef signext %.0.i.i.i.i)
  %32 = tail call noundef nonnull align 8 dereferenceable(8) ptr @_ZNSo5flushEv(ptr noundef nonnull align 8 dereferenceable(8) %31)
  ret void
}